target datalayout = "e-m:e-p270:32:32-p271:32:32-p272:64:64-i64:64-i128:128-f80:128-n8:16:32:64-S128"
target triple = "x86_64-pc-linux-gnu"

%struct._generic_N_Vector = type { ptr, ptr, ptr }
%struct._N_VectorContent_Serial = type { i64, i32, ptr }

; Function Attrs: nounwind uwtable
define internal double @rdot(double noundef %0, ptr noundef %1) #0 {
  %3 = alloca double, align 8
  %4 = alloca ptr, align 8
  store double %0, ptr %3, align 8, !tbaa !11
  store ptr %1, ptr %4, align 8, !tbaa !17
  %5 = load double, ptr %3, align 8, !tbaa !11
  %6 = call double @sin(double noundef %5) #6, !tbaa !4
  %7 = fmul double -5.000000e-01, %6
  ret double %7
}

; Function Attrs: nounwind uwtable
define internal double @s(double noundef %0, ptr noundef %1) #0 {
  %3 = alloca double, align 8
  %4 = alloca ptr, align 8
  %5 = alloca ptr, align 8
  store double %0, ptr %3, align 8, !tbaa !11
  store ptr %1, ptr %4, align 8, !tbaa !17
  call void @llvm.lifetime.start.p0(i64 8, ptr %5) #6
  %6 = load ptr, ptr %4, align 8, !tbaa !17
  store ptr %6, ptr %5, align 8, !tbaa !36
  %7 = load ptr, ptr %5, align 8, !tbaa !36
  %8 = getelementptr inbounds double, ptr %7, i64 1
  %9 = load double, ptr %8, align 8, !tbaa !11
  %10 = load double, ptr %3, align 8, !tbaa !11
  %11 = fmul double %9, %10
  %12 = call double @cos(double noundef %11) #6, !tbaa !4
  call void @llvm.lifetime.end.p0(i64 8, ptr %5) #6
  ret double %12
}

; Function Attrs: nounwind uwtable
define internal double @r(double noundef %0, ptr noundef %1) #0 {
  %3 = alloca double, align 8
  %4 = alloca ptr, align 8
  store double %0, ptr %3, align 8, !tbaa !11
  store ptr %1, ptr %4, align 8, !tbaa !17
  %5 = load double, ptr %3, align 8, !tbaa !11
  %6 = call double @cos(double noundef %5) #6, !tbaa !4
  %7 = fmul double 5.000000e-01, %6
  ret double %7
}

; Function Attrs: nounwind uwtable
define internal i32 @fs(double noundef %0, ptr noundef %1, ptr noundef %2, ptr noundef %3) #0 {
  %5 = alloca double, align 8
  %6 = alloca ptr, align 8
  %7 = alloca ptr, align 8
  %8 = alloca ptr, align 8
  %9 = alloca ptr, align 8
  %10 = alloca double, align 8
  %11 = alloca double, align 8
  %12 = alloca double, align 8
  %13 = alloca double, align 8
  %14 = alloca double, align 8
  %15 = alloca double, align 8
  store double %0, ptr %5, align 8, !tbaa !11
  store ptr %1, ptr %6, align 8, !tbaa !15
  store ptr %2, ptr %7, align 8, !tbaa !15
  store ptr %3, ptr %8, align 8, !tbaa !17
  call void @llvm.lifetime.start.p0(i64 8, ptr %9) #6
  %16 = load ptr, ptr %8, align 8, !tbaa !17
  store ptr %16, ptr %9, align 8, !tbaa !36
  call void @llvm.lifetime.start.p0(i64 8, ptr %10) #6
  %17 = load ptr, ptr %9, align 8, !tbaa !36
  %18 = getelementptr inbounds double, ptr %17, i64 0
  %19 = load double, ptr %18, align 8, !tbaa !11
  store double %19, ptr %10, align 8, !tbaa !11
  call void @llvm.lifetime.start.p0(i64 8, ptr %11) #6
  %20 = load ptr, ptr %9, align 8, !tbaa !36
  %21 = getelementptr inbounds double, ptr %20, i64 2
  %22 = load double, ptr %21, align 8, !tbaa !11
  store double %22, ptr %11, align 8, !tbaa !11
  call void @llvm.lifetime.start.p0(i64 8, ptr %12) #6
  %23 = load ptr, ptr %6, align 8, !tbaa !15
  %24 = getelementptr inbounds nuw %struct._generic_N_Vector, ptr %23, i32 0, i32 0
  %25 = load ptr, ptr %24, align 8, !tbaa !44
  %26 = getelementptr inbounds nuw %struct._N_VectorContent_Serial, ptr %25, i32 0, i32 2
  %27 = load ptr, ptr %26, align 8, !tbaa !47
  %28 = getelementptr inbounds double, ptr %27, i64 0
  %29 = load double, ptr %28, align 8, !tbaa !11
  store double %29, ptr %12, align 8, !tbaa !11
  call void @llvm.lifetime.start.p0(i64 8, ptr %13) #6
  %30 = load ptr, ptr %6, align 8, !tbaa !15
  %31 = getelementptr inbounds nuw %struct._generic_N_Vector, ptr %30, i32 0, i32 0
  %32 = load ptr, ptr %31, align 8, !tbaa !44
  %33 = getelementptr inbounds nuw %struct._N_VectorContent_Serial, ptr %32, i32 0, i32 2
  %34 = load ptr, ptr %33, align 8, !tbaa !47
  %35 = getelementptr inbounds double, ptr %34, i64 1
  %36 = load double, ptr %35, align 8, !tbaa !11
  store double %36, ptr %13, align 8, !tbaa !11
  call void @llvm.lifetime.start.p0(i64 8, ptr %14) #6
  call void @llvm.lifetime.start.p0(i64 8, ptr %15) #6
  %37 = load double, ptr %12, align 8, !tbaa !11
  %38 = load double, ptr %12, align 8, !tbaa !11
  %39 = call double @llvm.fmuladd.f64(double %37, double %38, double -1.000000e+00)
  %40 = load double, ptr %5, align 8, !tbaa !11
  %41 = load ptr, ptr %9, align 8, !tbaa !36
  %42 = call double @r(double noundef %40, ptr noundef %41)
  %43 = fsub double %39, %42
  %44 = load double, ptr %12, align 8, !tbaa !11
  %45 = fmul double 2.000000e+00, %44
  %46 = fdiv double %43, %45
  store double %46, ptr %14, align 8, !tbaa !11
  %47 = load double, ptr %13, align 8, !tbaa !11
  %48 = load double, ptr %13, align 8, !tbaa !11
  %49 = call double @llvm.fmuladd.f64(double %47, double %48, double -2.000000e+00)
  %50 = load double, ptr %5, align 8, !tbaa !11
  %51 = load ptr, ptr %9, align 8, !tbaa !36
  %52 = call double @s(double noundef %50, ptr noundef %51)
  %53 = fsub double %49, %52
  %54 = load double, ptr %13, align 8, !tbaa !11
  %55 = fmul double 2.000000e+00, %54
  %56 = fdiv double %53, %55
  store double %56, ptr %15, align 8, !tbaa !11
  %57 = load double, ptr %10, align 8, !tbaa !11
  %58 = load double, ptr %14, align 8, !tbaa !11
  %59 = load double, ptr %11, align 8, !tbaa !11
  %60 = load double, ptr %15, align 8, !tbaa !11
  %61 = fmul double %59, %60
  %62 = call double @llvm.fmuladd.f64(double %57, double %58, double %61)
  %63 = load double, ptr %5, align 8, !tbaa !11
  %64 = load ptr, ptr %9, align 8, !tbaa !36
  %65 = call double @rdot(double noundef %63, ptr noundef %64)
  %66 = load double, ptr %12, align 8, !tbaa !11
  %67 = fmul double 2.000000e+00, %66
  %68 = fdiv double %65, %67
  %69 = fadd double %62, %68
  %70 = load ptr, ptr %7, align 8, !tbaa !15
  %71 = getelementptr inbounds nuw %struct._generic_N_Vector, ptr %70, i32 0, i32 0
  %72 = load ptr, ptr %71, align 8, !tbaa !44
  %73 = getelementptr inbounds nuw %struct._N_VectorContent_Serial, ptr %72, i32 0, i32 2
  %74 = load ptr, ptr %73, align 8, !tbaa !47
  %75 = getelementptr inbounds double, ptr %74, i64 0
  store double %69, ptr %75, align 8, !tbaa !11
  %76 = load ptr, ptr %7, align 8, !tbaa !15
  %77 = getelementptr inbounds nuw %struct._generic_N_Vector, ptr %76, i32 0, i32 0
  %78 = load ptr, ptr %77, align 8, !tbaa !44
  %79 = getelementptr inbounds nuw %struct._N_VectorContent_Serial, ptr %78, i32 0, i32 2
  %80 = load ptr, ptr %79, align 8, !tbaa !47
  %81 = getelementptr inbounds double, ptr %80, i64 1
  store double 0.000000e+00, ptr %81, align 8, !tbaa !11
  call void @llvm.lifetime.end.p0(i64 8, ptr %15) #6
  call void @llvm.lifetime.end.p0(i64 8, ptr %14) #6
  call void @llvm.lifetime.end.p0(i64 8, ptr %13) #6
  call void @llvm.lifetime.end.p0(i64 8, ptr %12) #6
  call void @llvm.lifetime.end.p0(i64 8, ptr %11) #6
  call void @llvm.lifetime.end.p0(i64 8, ptr %10) #6
  call void @llvm.lifetime.end.p0(i64 8, ptr %9) #6
  ret i32 0
}